(dp0
S'99999999'
p1
(lp2
S'99999999'
p3
aS'123'
p4
aS'5000'
p5
aI1952
asS'88888888'
p6
(lp7
S'88888888'
p8
aS'8888'
p9
aI10500
aI9104
asS'89537188'
p10
(lp11
S'89537188'
p12
aS'123456'
p13
aS'10000'
p14
aI7404
as.